target datalayout = "e-m:e-p270:32:32-p271:32:32-p272:64:64-i64:64-i128:128-f80:128-n8:16:32:64-S128"
target triple = "x86_64-pc-linux-gnu"

@lj_obj_itypename = external hidden constant [14 x ptr], align 16

; Function Attrs: noinline noreturn nounwind uwtable
define hidden void @lj_err_comp(ptr noundef %0, ptr noundef %1, ptr noundef %2) #6 {
  %4 = alloca ptr, align 8
  %5 = alloca ptr, align 8
  %6 = alloca ptr, align 8
  %7 = alloca ptr, align 8
  %8 = alloca ptr, align 8
  store ptr %0, ptr %4, align 8, !tbaa !18
  store ptr %1, ptr %5, align 8, !tbaa !25
  store ptr %2, ptr %6, align 8, !tbaa !25
  call void @llvm.lifetime.start.p0(i64 8, ptr %7) #15
  %9 = load ptr, ptr %5, align 8, !tbaa !25
  %10 = load i64, ptr %9, align 8, !tbaa !28
  %11 = ashr i64 %10, 47
  %12 = trunc i64 %11 to i32
  %13 = icmp ule i32 %12, -14
  br i1 %13, label %14, label %15

14:                                               ; preds = %3
  br label %21

15:                                               ; preds = %3
  %16 = load ptr, ptr %5, align 8, !tbaa !25
  %17 = load i64, ptr %16, align 8, !tbaa !28
  %18 = ashr i64 %17, 47
  %19 = trunc i64 %18 to i32
  %20 = xor i32 %19, -1
  br label %21

21:                                               ; preds = %15, %14
  %22 = phi i32 [ 13, %14 ], [ %20, %15 ]
  %23 = zext i32 %22 to i64
  %24 = getelementptr inbounds nuw [14 x ptr], ptr @lj_obj_itypename, i64 0, i64 %23
  %25 = load ptr, ptr %24, align 8, !tbaa !50
  store ptr %25, ptr %7, align 8, !tbaa !50
  call void @llvm.lifetime.start.p0(i64 8, ptr %8) #15
  %26 = load ptr, ptr %6, align 8, !tbaa !25
  %27 = load i64, ptr %26, align 8, !tbaa !28
  %28 = ashr i64 %27, 47
  %29 = trunc i64 %28 to i32
  %30 = icmp ule i32 %29, -14
  br i1 %30, label %31, label %32

31:                                               ; preds = %21
  br label %38

32:                                               ; preds = %21
  %33 = load ptr, ptr %6, align 8, !tbaa !25
  %34 = load i64, ptr %33, align 8, !tbaa !28
  %35 = ashr i64 %34, 47
  %36 = trunc i64 %35 to i32
  %37 = xor i32 %36, -1
  br label %38

38:                                               ; preds = %32, %31
  %39 = phi i32 [ 13, %31 ], [ %37, %32 ]
  %40 = zext i32 %39 to i64
  %41 = getelementptr inbounds nuw [14 x ptr], ptr @lj_obj_itypename, i64 0, i64 %40
  %42 = load ptr, ptr %41, align 8, !tbaa !50
  store ptr %42, ptr %8, align 8, !tbaa !50
  %43 = load ptr, ptr %4, align 8, !tbaa !18
  %44 = load ptr, ptr %7, align 8, !tbaa !50
  %45 = load ptr, ptr %8, align 8, !tbaa !50
  %46 = icmp eq ptr %44, %45
  %47 = select i1 %46, i32 331, i32 301
  %48 = load ptr, ptr %7, align 8, !tbaa !50
  %49 = load ptr, ptr %8, align 8, !tbaa !50
  call void (ptr, i32, ...) @err_msgv(ptr noundef %43, i32 noundef %47, ptr noundef %48, ptr noundef %49) #18
  unreachable
}