; Function Attrs: noinline noreturn nounwind uwtable
define hidden void @lj_err_comp(ptr noundef %0, ptr noundef readonly captures(none) %1, ptr noundef readonly captures(none) %2) local_unnamed_addr #5 {
  %4 = load i64, ptr %1, align 8, !tbaa !18
  %5 = ashr i64 %4, 47
  %6 = tail call i64 @llvm.umax.i64(i64 %5, i64 -14)
  %spec.select = xor i64 %6, -1
  %7 = getelementptr inbounds nuw [14 x ptr], ptr @lj_obj_itypename, i64 0, i64 %spec.select
  %8 = load ptr, ptr %7, align 8, !tbaa !36
  %9 = load i64, ptr %2, align 8, !tbaa !18
  %10 = ashr i64 %9, 47
  %11 = tail call i64 @llvm.umax.i64(i64 %10, i64 -14)
  %12 = xor i64 %11, -1
  %13 = getelementptr inbounds nuw [14 x ptr], ptr @lj_obj_itypename, i64 0, i64 %12
  %14 = load ptr, ptr %13, align 8, !tbaa !36
  %15 = icmp eq ptr %8, %14
  %16 = select i1 %15, i32 331, i32 301
  tail call void (ptr, i32, ...) @err_msgv(ptr noundef %0, i32 noundef %16, ptr noundef %8, ptr noundef %14) #19
  unreachable
}